---
triple:          'arm64-apple-darwin'
binary-path:     './bin/exec'
relocations:
  - { offsetInCU: 0x28A, offset: 0x28A, size: 0x8, addend: 0x0, symName: __ZNSt3__16copy_nB7v160006IPKcjPcEENS_9enable_ifIXsr33__is_cpp17_random_access_iteratorIT_EE5valueET1_E4typeES5_T0_S6_, symObjAddr: 0xC24, symBinAddr: 0x100004E34, symSize: 0x44 }
  - { offsetInCU: 0x17A9, offset: 0x17A9, size: 0x8, addend: 0x0, symName: __ZNSt3__128__char_traits_length_checkedB7v160006INS_11char_traitsIcEEEEmPKNT_9char_typeE, symObjAddr: 0xD58, symBinAddr: 0x100004F68, symSize: 0x24 }
  - { offsetInCU: 0x17DE, offset: 0x17DE, size: 0x8, addend: 0x0, symName: __ZNSt3__118__constexpr_strlenB7v160006EPKc, symObjAddr: 0xDB0, symBinAddr: 0x100004FC0, symSize: 0x24 }
  - { offsetInCU: 0x180A, offset: 0x180A, size: 0x8, addend: 0x0, symName: __ZNSt3__14copyB7v160006IPKcPcEET0_T_S5_S4_, symObjAddr: 0xE2C, symBinAddr: 0x10000503C, symSize: 0x40 }
  - { offsetInCU: 0x1864, offset: 0x1864, size: 0x8, addend: 0x0, symName: __ZNSt3__16__copyB7v160006INS_17_ClassicAlgPolicyEPKcS3_PcEENS_4pairIT0_T2_EES6_T1_S7_, symObjAddr: 0xE6C, symBinAddr: 0x10000507C, symSize: 0x44 }
  - { offsetInCU: 0x18D0, offset: 0x18D0, size: 0x8, addend: 0x0, symName: __ZNSt3__123__dispatch_copy_or_moveB7v160006INS_17_ClassicAlgPolicyENS_11__copy_loopIS1_EENS_14__copy_trivialEPKcS6_PcEENS_4pairIT2_T4_EES9_T3_SA_, symObjAddr: 0xEB0, symBinAddr: 0x1000050C0, symSize: 0x44 }
  - { offsetInCU: 0x194E, offset: 0x194E, size: 0x8, addend: 0x0, symName: __ZNSt3__121__unwrap_and_dispatchB7v160006INS_10__overloadINS_11__copy_loopINS_17_ClassicAlgPolicyEEENS_14__copy_trivialEEEPKcS8_PcLi0EEENS_4pairIT0_T2_EESB_T1_SC_, symObjAddr: 0xEF4, symBinAddr: 0x100005104, symSize: 0xB4 }
  - { offsetInCU: 0x19DC, offset: 0x19DC, size: 0x8, addend: 0x0, symName: __ZNSt3__114__unwrap_rangeB7v160006IPKcS2_EEDaT_T0_, symObjAddr: 0xFA8, symBinAddr: 0x1000051B8, symSize: 0x3C }
  - { offsetInCU: 0x1B71, offset: 0x1B71, size: 0x8, addend: 0x0, symName: __ZNSt3__113__unwrap_iterB7v160006IPcNS_18__unwrap_iter_implIS1_Lb1EEELi0EEEDTclsrT0_8__unwrapclsr3stdE7declvalIT_EEEES5_, symObjAddr: 0x102C, symBinAddr: 0x10000523C, symSize: 0x24 }
  - { offsetInCU: 0x1BB5, offset: 0x1BB5, size: 0x8, addend: 0x0, symName: __ZNSt3__19make_pairB7v160006IPKcPcEENS_4pairINS_18__unwrap_ref_decayIT_E4typeENS5_IT0_E4typeEEEOS6_OS9_, symObjAddr: 0x1050, symBinAddr: 0x100005260, symSize: 0x38 }
  - { offsetInCU: 0x1C04, offset: 0x1C04, size: 0x8, addend: 0x0, symName: __ZNSt3__114__rewrap_rangeB7v160006IPKcS2_S2_EET0_S3_T1_, symObjAddr: 0x1088, symBinAddr: 0x100005298, symSize: 0x2C }
  - { offsetInCU: 0x1C59, offset: 0x1C59, size: 0x8, addend: 0x0, symName: __ZNSt3__113__rewrap_iterB7v160006IPcS1_NS_18__unwrap_iter_implIS1_Lb1EEEEET_S4_T0_, symObjAddr: 0x10B4, symBinAddr: 0x1000052C4, symSize: 0x3C }
  - { offsetInCU: 0x1DCA, offset: 0x1DCA, size: 0x8, addend: 0x0, symName: __ZNSt3__113__unwrap_iterB7v160006IPKcNS_18__unwrap_iter_implIS2_Lb1EEELi0EEEDTclsrT0_8__unwrapclsr3stdE7declvalIT_EEEES6_, symObjAddr: 0x1148, symBinAddr: 0x100005358, symSize: 0x24 }
  - { offsetInCU: 0x1E61, offset: 0x1E61, size: 0x8, addend: 0x0, symName: __ZNSt3__112__to_addressB7v160006IKcEEPT_S3_, symObjAddr: 0x11CC, symBinAddr: 0x1000053DC, symSize: 0x14 }
  - { offsetInCU: 0x1E96, offset: 0x1E96, size: 0x8, addend: 0x0, symName: __ZNSt3__119__copy_trivial_implB7v160006IKccEENS_4pairIPT_PT0_EES4_S4_S6_, symObjAddr: 0x1214, symBinAddr: 0x100005424, symSize: 0x7C }
  - { offsetInCU: 0x1EFE, offset: 0x1EFE, size: 0x8, addend: 0x0, symName: __ZNSt3__19make_pairB7v160006IRPKcPcEENS_4pairINS_18__unwrap_ref_decayIT_E4typeENS6_IT0_E4typeEEEOS7_OSA_, symObjAddr: 0x1290, symBinAddr: 0x1000054A0, symSize: 0x38 }
  - { offsetInCU: 0x1FA0, offset: 0x1FA0, size: 0x8, addend: 0x0, symName: __ZNSt3__112__to_addressB7v160006IcEEPT_S2_, symObjAddr: 0x135C, symBinAddr: 0x10000556C, symSize: 0x14 }
  - { offsetInCU: 0x1FD5, offset: 0x1FD5, size: 0x8, addend: 0x0, symName: __ZNSt3__113__rewrap_iterB7v160006IPKcS2_NS_18__unwrap_iter_implIS2_Lb1EEEEET_S5_T0_, symObjAddr: 0x140C, symBinAddr: 0x10000561C, symSize: 0x3C }
  - { offsetInCU: 0x42FD, offset: 0x42FD, size: 0x8, addend: 0x0, symName: __Z11ConcatCords13SharedPointerI4CordES1_, symObjAddr: 0x0, symBinAddr: 0x100004210, symSize: 0x19C }
  - { offsetInCU: 0x462C, offset: 0x462C, size: 0x8, addend: 0x0, symName: __ZN13SharedPointerI4CordE3GetEv, symObjAddr: 0x19C, symBinAddr: 0x1000043AC, symSize: 0x18 }
  - { offsetInCU: 0x4650, offset: 0x4650, size: 0x8, addend: 0x0, symName: __ZNSt16invalid_argumentC1B7v160006EPKc, symObjAddr: 0x1B4, symBinAddr: 0x1000043C4, symSize: 0x34 }
  - { offsetInCU: 0x4686, offset: 0x4686, size: 0x8, addend: 0x0, symName: __ZN13SharedPointerI4CordEC1ERKS1_, symObjAddr: 0x1E8, symBinAddr: 0x1000043F8, symSize: 0x34 }
  - { offsetInCU: 0x46BD, offset: 0x46BD, size: 0x8, addend: 0x0, symName: __ZN13SharedPointerI4CordEC1EPS0_18kSharedPointerType, symObjAddr: 0x21C, symBinAddr: 0x10000442C, symSize: 0x3C }
  - { offsetInCU: 0x4702, offset: 0x4702, size: 0x8, addend: 0x0, symName: __ZN13SharedPointerI4CordED1Ev, symObjAddr: 0x258, symBinAddr: 0x100004468, symSize: 0x2C }
  - { offsetInCU: 0x472B, offset: 0x472B, size: 0x8, addend: 0x0, symName: __Z6IsLeafRK13SharedPointerI4CordE, symObjAddr: 0x284, symBinAddr: 0x100004494, symSize: 0x144 }
  - { offsetInCU: 0x4757, offset: 0x4757, size: 0x8, addend: 0x0, symName: __ZNK13SharedPointerI4CordEptEv, symObjAddr: 0x3C8, symBinAddr: 0x1000045D8, symSize: 0x18 }
  - { offsetInCU: 0x477B, offset: 0x477B, size: 0x8, addend: 0x0, symName: __ZNK4Cord4LeftEv, symObjAddr: 0x3E0, symBinAddr: 0x1000045F0, symSize: 0x38 }
  - { offsetInCU: 0x479F, offset: 0x479F, size: 0x8, addend: 0x0, symName: __ZNK13SharedPointerI4CordE3GetEv, symObjAddr: 0x418, symBinAddr: 0x100004628, symSize: 0x18 }
  - { offsetInCU: 0x47C3, offset: 0x47C3, size: 0x8, addend: 0x0, symName: __ZNK4Cord5RightEv, symObjAddr: 0x430, symBinAddr: 0x100004640, symSize: 0x3C }
  - { offsetInCU: 0x47E7, offset: 0x47E7, size: 0x8, addend: 0x0, symName: __Z12CordToStringRK13SharedPointerI4CordE, symObjAddr: 0x46C, symBinAddr: 0x10000467C, symSize: 0xA0 }
  - { offsetInCU: 0x4813, offset: 0x4813, size: 0x8, addend: 0x0, symName: __ZNK4Cord4DataEv, symObjAddr: 0x50C, symBinAddr: 0x10000471C, symSize: 0x34 }
  - { offsetInCU: 0x4837, offset: 0x4837, size: 0x8, addend: 0x0, symName: __Z8MakeCordPc, symObjAddr: 0x540, symBinAddr: 0x100004750, symSize: 0xEC }
  - { offsetInCU: 0x4871, offset: 0x4871, size: 0x8, addend: 0x0, symName: __ZNSt3__117basic_string_viewIcNS_11char_traitsIcEEEC1B7v160006EPKc, symObjAddr: 0x62C, symBinAddr: 0x10000483C, symSize: 0x34 }
  - { offsetInCU: 0x48A8, offset: 0x48A8, size: 0x8, addend: 0x0, symName: __Z9SubString13SharedPointerI4CordEjj, symObjAddr: 0x660, symBinAddr: 0x100004870, symSize: 0x560 }
  - { offsetInCU: 0x4948, offset: 0x4948, size: 0x8, addend: 0x0, symName: __ZN13SharedPointerI4CordEptEv, symObjAddr: 0xBC0, symBinAddr: 0x100004DD0, symSize: 0x18 }
  - { offsetInCU: 0x496C, offset: 0x496C, size: 0x8, addend: 0x0, symName: __ZNK4Cord6LengthEv, symObjAddr: 0xBD8, symBinAddr: 0x100004DE8, symSize: 0x18 }
  - { offsetInCU: 0x4990, offset: 0x4990, size: 0x8, addend: 0x0, symName: __ZNSt12out_of_rangeC1B7v160006EPKc, symObjAddr: 0xBF0, symBinAddr: 0x100004E00, symSize: 0x34 }
  - { offsetInCU: 0x49C6, offset: 0x49C6, size: 0x8, addend: 0x0, symName: __ZNKSt3__117basic_string_viewIcNS_11char_traitsIcEEE5beginB7v160006Ev, symObjAddr: 0xC68, symBinAddr: 0x100004E78, symSize: 0x24 }
  - { offsetInCU: 0x49EA, offset: 0x49EA, size: 0x8, addend: 0x0, symName: __ZNSt3__117basic_string_viewIcNS_11char_traitsIcEEEC1B7v160006EPKcm, symObjAddr: 0xC8C, symBinAddr: 0x100004E9C, symSize: 0x3C }
  - { offsetInCU: 0x4A30, offset: 0x4A30, size: 0x8, addend: 0x0, symName: __ZNSt16invalid_argumentC2B7v160006EPKc, symObjAddr: 0xCC8, symBinAddr: 0x100004ED8, symSize: 0x4C }
  - { offsetInCU: 0x4A66, offset: 0x4A66, size: 0x8, addend: 0x0, symName: __ZNSt3__117basic_string_viewIcNS_11char_traitsIcEEEC2B7v160006EPKc, symObjAddr: 0xD14, symBinAddr: 0x100004F24, symSize: 0x44 }
  - { offsetInCU: 0x4A9D, offset: 0x4A9D, size: 0x8, addend: 0x0, symName: __ZNSt3__111char_traitsIcE6lengthEPKc, symObjAddr: 0xD7C, symBinAddr: 0x100004F8C, symSize: 0x34 }
  - { offsetInCU: 0x4ABF, offset: 0x4ABF, size: 0x8, addend: 0x0, symName: __ZNSt12out_of_rangeC2B7v160006EPKc, symObjAddr: 0xDE0, symBinAddr: 0x100004FF0, symSize: 0x4C }
  - { offsetInCU: 0x4B18, offset: 0x4B18, size: 0x8, addend: 0x0, symName: __ZNKSt3__114__copy_trivialclB7v160006IKccLi0EEENS_4pairIPT_PT0_EES5_S5_S7_, symObjAddr: 0xFE4, symBinAddr: 0x1000051F4, symSize: 0x48 }
  - { offsetInCU: 0x4B97, offset: 0x4B97, size: 0x8, addend: 0x0, symName: __ZNSt3__119__unwrap_range_implIPKcS2_E8__unwrapB7v160006ES2_S2_, symObjAddr: 0x10F0, symBinAddr: 0x100005300, symSize: 0x58 }
  - { offsetInCU: 0x4BCC, offset: 0x4BCC, size: 0x8, addend: 0x0, symName: __ZNSt3__14pairIPKcS2_EC1B7v160006IS2_S2_LPv0EEEOT_OT0_, symObjAddr: 0x116C, symBinAddr: 0x10000537C, symSize: 0x3C }
  - { offsetInCU: 0x4C28, offset: 0x4C28, size: 0x8, addend: 0x0, symName: __ZNSt3__118__unwrap_iter_implIPKcLb1EE8__unwrapB7v160006ES2_, symObjAddr: 0x11A8, symBinAddr: 0x1000053B8, symSize: 0x24 }
  - { offsetInCU: 0x4C4A, offset: 0x4C4A, size: 0x8, addend: 0x0, symName: __ZNSt3__14pairIPKcS2_EC2B7v160006IS2_S2_LPv0EEEOT_OT0_, symObjAddr: 0x11E0, symBinAddr: 0x1000053F0, symSize: 0x34 }
  - { offsetInCU: 0x4CB0, offset: 0x4CB0, size: 0x8, addend: 0x0, symName: __ZNSt3__14pairIPKcPcEC1B7v160006IRS2_S3_LPv0EEEOT_OT0_, symObjAddr: 0x12C8, symBinAddr: 0x1000054D8, symSize: 0x3C }
  - { offsetInCU: 0x4D0C, offset: 0x4D0C, size: 0x8, addend: 0x0, symName: __ZNSt3__14pairIPKcPcEC2B7v160006IRS2_S3_LPv0EEEOT_OT0_, symObjAddr: 0x1304, symBinAddr: 0x100005514, symSize: 0x34 }
  - { offsetInCU: 0x4D68, offset: 0x4D68, size: 0x8, addend: 0x0, symName: __ZNSt3__118__unwrap_iter_implIPcLb1EE8__unwrapB7v160006ES1_, symObjAddr: 0x1338, symBinAddr: 0x100005548, symSize: 0x24 }
  - { offsetInCU: 0x4D8A, offset: 0x4D8A, size: 0x8, addend: 0x0, symName: __ZNSt3__14pairIPKcPcEC1B7v160006IS2_S3_LPv0EEEOT_OT0_, symObjAddr: 0x1370, symBinAddr: 0x100005580, symSize: 0x3C }
  - { offsetInCU: 0x4DE6, offset: 0x4DE6, size: 0x8, addend: 0x0, symName: __ZNSt3__14pairIPKcPcEC2B7v160006IS2_S3_LPv0EEEOT_OT0_, symObjAddr: 0x13AC, symBinAddr: 0x1000055BC, symSize: 0x34 }
  - { offsetInCU: 0x4E42, offset: 0x4E42, size: 0x8, addend: 0x0, symName: __ZNSt3__119__unwrap_range_implIPKcS2_E8__rewrapB7v160006ES2_S2_, symObjAddr: 0x13E0, symBinAddr: 0x1000055F0, symSize: 0x2C }
  - { offsetInCU: 0x4E72, offset: 0x4E72, size: 0x8, addend: 0x0, symName: __ZNSt3__118__unwrap_iter_implIPKcLb1EE8__rewrapB7v160006ES2_S2_, symObjAddr: 0x1448, symBinAddr: 0x100005658, symSize: 0x48 }
  - { offsetInCU: 0x4EA2, offset: 0x4EA2, size: 0x8, addend: 0x0, symName: __ZNSt3__118__unwrap_iter_implIPcLb1EE8__rewrapB7v160006ES1_S1_, symObjAddr: 0x1490, symBinAddr: 0x1000056A0, symSize: 0x48 }
  - { offsetInCU: 0x4ED2, offset: 0x4ED2, size: 0x8, addend: 0x0, symName: __ZNKSt3__117basic_string_viewIcNS_11char_traitsIcEEE6cbeginB7v160006Ev, symObjAddr: 0x14D8, symBinAddr: 0x1000056E8, symSize: 0x18 }
  - { offsetInCU: 0x4EF6, offset: 0x4EF6, size: 0x8, addend: 0x0, symName: __ZNSt3__117basic_string_viewIcNS_11char_traitsIcEEEC2B7v160006EPKcm, symObjAddr: 0x14F0, symBinAddr: 0x100005700, symSize: 0x50 }
  - { offsetInCU: 0x4F3C, offset: 0x4F3C, size: 0x8, addend: 0x0, symName: __ZN13SharedPointerI4CordEC2ERKS1_, symObjAddr: 0x1540, symBinAddr: 0x100005750, symSize: 0x78 }
  - { offsetInCU: 0x4F73, offset: 0x4F73, size: 0x8, addend: 0x0, symName: __ZN13SharedPointerI4CordED2Ev, symObjAddr: 0x15B8, symBinAddr: 0x1000057C8, symSize: 0x170 }
  - { offsetInCU: 0x4F9C, offset: 0x4F9C, size: 0x8, addend: 0x0, symName: __ZN13SharedPointerI4CordEC2EPS0_18kSharedPointerType, symObjAddr: 0x1728, symBinAddr: 0x100005938, symSize: 0x58 }
  - { offsetInCU: 0x326E, offset: 0x8281, size: 0x8, addend: 0x0, symName: __ZN4CordC2E13SharedPointerIS_ES1_, symObjAddr: 0x0, symBinAddr: 0x100005990, symSize: 0xF0 }
  - { offsetInCU: 0x32B6, offset: 0x82C9, size: 0x8, addend: 0x0, symName: __ZN4CordC1E13SharedPointerIS_ES1_, symObjAddr: 0x180, symBinAddr: 0x100005A80, symSize: 0x3C }
  - { offsetInCU: 0x32FE, offset: 0x8311, size: 0x8, addend: 0x0, symName: __ZN4CordC2ENSt3__117basic_string_viewIcNS0_11char_traitsIcEEEE, symObjAddr: 0x1BC, symBinAddr: 0x100005ABC, symSize: 0x190 }
  - { offsetInCU: 0x3352, offset: 0x8365, size: 0x8, addend: 0x0, symName: __ZN13SharedPointerI4CordEC1Ev, symObjAddr: 0x34C, symBinAddr: 0x100005C4C, symSize: 0x2C }
  - { offsetInCU: 0x337A, offset: 0x838D, size: 0x8, addend: 0x0, symName: __ZNKSt3__117basic_string_viewIcNS_11char_traitsIcEEE5emptyB7v160006Ev, symObjAddr: 0x378, symBinAddr: 0x100005C78, symSize: 0x24 }
  - { offsetInCU: 0x339E, offset: 0x83B1, size: 0x8, addend: 0x0, symName: __ZNSt9exceptionC1B7v160006Ev, symObjAddr: 0x39C, symBinAddr: 0x100005C9C, symSize: 0x2C }
  - { offsetInCU: 0x33C6, offset: 0x83D9, size: 0x8, addend: 0x0, symName: __ZNKSt3__117basic_string_viewIcNS_11char_traitsIcEEE4sizeB7v160006Ev, symObjAddr: 0x3C8, symBinAddr: 0x100005CC8, symSize: 0x18 }
  - { offsetInCU: 0x33EA, offset: 0x83FD, size: 0x8, addend: 0x0, symName: __ZNKSt3__117basic_string_viewIcNS_11char_traitsIcEEEixB7v160006Em, symObjAddr: 0x3E0, symBinAddr: 0x100005CE0, symSize: 0x24 }
  - { offsetInCU: 0x341D, offset: 0x8430, size: 0x8, addend: 0x0, symName: __ZN4CordC1ENSt3__117basic_string_viewIcNS0_11char_traitsIcEEEE, symObjAddr: 0x404, symBinAddr: 0x100005D04, symSize: 0x3C }
  - { offsetInCU: 0x3455, offset: 0x8468, size: 0x8, addend: 0x0, symName: __ZN4CordD2Ev, symObjAddr: 0x440, symBinAddr: 0x100005D40, symSize: 0x68 }
  - { offsetInCU: 0x347F, offset: 0x8492, size: 0x8, addend: 0x0, symName: __ZN4CordD1Ev, symObjAddr: 0x4A8, symBinAddr: 0x100005DA8, symSize: 0x2C }
  - { offsetInCU: 0x34A9, offset: 0x84BC, size: 0x8, addend: 0x0, symName: __ZNK4Cord6IsLeafEPKS_, symObjAddr: 0x4D4, symBinAddr: 0x100005DD4, symSize: 0x134 }
  - { offsetInCU: 0x34DD, offset: 0x84F0, size: 0x8, addend: 0x0, symName: __ZNK4Cord8ToStringEv, symObjAddr: 0x694, symBinAddr: 0x100005F08, symSize: 0x130 }
  - { offsetInCU: 0x358B, offset: 0x859E, size: 0x8, addend: 0x0, symName: __ZNKSt3__117basic_string_viewIcNS_11char_traitsIcEEE3endB7v160006Ev, symObjAddr: 0x85C, symBinAddr: 0x100006038, symSize: 0x24 }
  - { offsetInCU: 0x35AF, offset: 0x85C2, size: 0x8, addend: 0x0, symName: __ZN13SharedPointerIcEC1EPc18kSharedPointerType, symObjAddr: 0x880, symBinAddr: 0x10000605C, symSize: 0x3C }
  - { offsetInCU: 0x3608, offset: 0x861B, size: 0x8, addend: 0x0, symName: '__ZZNK4Cord8ToStringEvENK3$_0clIS0_EEvPKS_RT_', symObjAddr: 0x8BC, symBinAddr: 0x100006098, symSize: 0x248 }
  - { offsetInCU: 0x368D, offset: 0x86A0, size: 0x8, addend: 0x0, symName: __ZN13SharedPointerI4CordEC2Ev, symObjAddr: 0xB04, symBinAddr: 0x1000062E0, symSize: 0x24 }
  - { offsetInCU: 0x36B5, offset: 0x86C8, size: 0x8, addend: 0x0, symName: __ZNSt9exceptionC2B7v160006Ev, symObjAddr: 0xB28, symBinAddr: 0x100006304, symSize: 0x24 }
  - { offsetInCU: 0x36DD, offset: 0x86F0, size: 0x8, addend: 0x0, symName: __ZNKSt3__117basic_string_viewIcNS_11char_traitsIcEEE4cendB7v160006Ev, symObjAddr: 0x129C, symBinAddr: 0x100006328, symSize: 0x20 }
  - { offsetInCU: 0x3701, offset: 0x8714, size: 0x8, addend: 0x0, symName: __ZN13SharedPointerIcEC2EPc18kSharedPointerType, symObjAddr: 0x14A4, symBinAddr: 0x100006348, symSize: 0x58 }
  - { offsetInCU: 0x3011, offset: 0xB783, size: 0x8, addend: 0x0, symName: __ZNSt3__124__put_character_sequenceB7v160006IcNS_11char_traitsIcEEEERNS_13basic_ostreamIT_T0_EES7_PKS4_m, symObjAddr: 0xD58, symBinAddr: 0x100006D04, symSize: 0x1EC }
  - { offsetInCU: 0x49A1, offset: 0xD113, size: 0x8, addend: 0x0, symName: __ZNSt3__1lsB7v160006INS_11char_traitsIcEEEERNS_13basic_ostreamIcT_EES6_PKc, symObjAddr: 0x82C, symBinAddr: 0x100006AE4, symSize: 0x48 }
  - { offsetInCU: 0x49E7, offset: 0xD159, size: 0x8, addend: 0x0, symName: __ZNSt3__14endlB7v160006IcNS_11char_traitsIcEEEERNS_13basic_ostreamIT_T0_EES7_, symObjAddr: 0x8B8, symBinAddr: 0x100006B70, symSize: 0x58 }
  - { offsetInCU: 0x4A27, offset: 0xD199, size: 0x8, addend: 0x0, symName: __ZNSt3__116__pad_and_outputB7v160006IcNS_11char_traitsIcEEEENS_19ostreambuf_iteratorIT_T0_EES6_PKS4_S8_S8_RNS_8ios_baseES4_, symObjAddr: 0xF60, symBinAddr: 0x100006F0C, symSize: 0x240 }
  - { offsetInCU: 0x4AF6, offset: 0xD268, size: 0x8, addend: 0x0, symName: __ZNSt3__119__debug_db_insert_cB7v160006INS_12basic_stringIcNS_11char_traitsIcEENS_9allocatorIcEEEEEEvPT_, symObjAddr: 0x1414, symBinAddr: 0x1000073C0, symSize: 0x10 }
  - { offsetInCU: 0x4B28, offset: 0xD29A, size: 0x8, addend: 0x0, symName: __ZNSt3__19use_facetB7v160006INS_5ctypeIcEEEERKT_RKNS_6localeE, symObjAddr: 0x1798, symBinAddr: 0x100007730, symSize: 0x2C }
  - { offsetInCU: 0x7148, offset: 0xF8BA, size: 0x8, addend: 0x0, symName: _main, symObjAddr: 0x0, symBinAddr: 0x1000063A0, symSize: 0x744 }
  - { offsetInCU: 0x7234, offset: 0xF9A6, size: 0x8, addend: 0x0, symName: __ZN13SharedPointerIcE3GetEv, symObjAddr: 0x874, symBinAddr: 0x100006B2C, symSize: 0x18 }
  - { offsetInCU: 0x7258, offset: 0xF9CA, size: 0x8, addend: 0x0, symName: __ZNSt3__113basic_ostreamIcNS_11char_traitsIcEEElsB7v160006EPFRS3_S4_E, symObjAddr: 0x88C, symBinAddr: 0x100006B44, symSize: 0x2C }
  - { offsetInCU: 0x728A, offset: 0xF9FC, size: 0x8, addend: 0x0, symName: __ZN13SharedPointerIcED1Ev, symObjAddr: 0x910, symBinAddr: 0x100006BC8, symSize: 0x2C }
  - { offsetInCU: 0x72B3, offset: 0xFA25, size: 0x8, addend: 0x0, symName: __ZN13SharedPointerIcED2Ev, symObjAddr: 0xC48, symBinAddr: 0x100006BF4, symSize: 0x110 }
  - { offsetInCU: 0x72FA, offset: 0xFA6C, size: 0x8, addend: 0x0, symName: __ZNKSt3__113basic_ostreamIcNS_11char_traitsIcEEE6sentrycvbB7v160006Ev, symObjAddr: 0xF44, symBinAddr: 0x100006EF0, symSize: 0x1C }
  - { offsetInCU: 0x731E, offset: 0xFA90, size: 0x8, addend: 0x0, symName: __ZNSt3__119ostreambuf_iteratorIcNS_11char_traitsIcEEEC1B7v160006ERNS_13basic_ostreamIcS2_EE, symObjAddr: 0x11A0, symBinAddr: 0x10000714C, symSize: 0x34 }
  - { offsetInCU: 0x7354, offset: 0xFAC6, size: 0x8, addend: 0x0, symName: __ZNKSt3__18ios_base5flagsB7v160006Ev, symObjAddr: 0x11D4, symBinAddr: 0x100007180, symSize: 0x18 }
  - { offsetInCU: 0x737B, offset: 0xFAED, size: 0x8, addend: 0x0, symName: __ZNKSt3__19basic_iosIcNS_11char_traitsIcEEE4fillB7v160006Ev, symObjAddr: 0x11EC, symBinAddr: 0x100007198, symSize: 0x64 }
  - { offsetInCU: 0x73A2, offset: 0xFB14, size: 0x8, addend: 0x0, symName: __ZNKSt3__119ostreambuf_iteratorIcNS_11char_traitsIcEEE6failedB7v160006Ev, symObjAddr: 0x1250, symBinAddr: 0x1000071FC, symSize: 0x24 }
  - { offsetInCU: 0x73C6, offset: 0xFB38, size: 0x8, addend: 0x0, symName: __ZNSt3__19basic_iosIcNS_11char_traitsIcEEE8setstateB7v160006Ej, symObjAddr: 0x1274, symBinAddr: 0x100007220, symSize: 0x2C }
  - { offsetInCU: 0x73F9, offset: 0xFB6B, size: 0x8, addend: 0x0, symName: __ZNKSt3__18ios_base5widthB7v160006Ev, symObjAddr: 0x12A0, symBinAddr: 0x10000724C, symSize: 0x18 }
  - { offsetInCU: 0x7420, offset: 0xFB92, size: 0x8, addend: 0x0, symName: __ZNSt3__115basic_streambufIcNS_11char_traitsIcEEE5sputnB7v160006EPKcl, symObjAddr: 0x12B8, symBinAddr: 0x100007264, symSize: 0x3C }
  - { offsetInCU: 0x7460, offset: 0xFBD2, size: 0x8, addend: 0x0, symName: __ZNSt3__112basic_stringIcNS_11char_traitsIcEENS_9allocatorIcEEEC1B7v160006Emc, symObjAddr: 0x12F4, symBinAddr: 0x1000072A0, symSize: 0x3C }
  - { offsetInCU: 0x74A6, offset: 0xFC18, size: 0x8, addend: 0x0, symName: __ZNSt3__112basic_stringIcNS_11char_traitsIcEENS_9allocatorIcEEE4dataB7v160006Ev, symObjAddr: 0x1330, symBinAddr: 0x1000072DC, symSize: 0x28 }
  - { offsetInCU: 0x74CA, offset: 0xFC3C, size: 0x8, addend: 0x0, symName: __ZNSt3__18ios_base5widthB7v160006El, symObjAddr: 0x1358, symBinAddr: 0x100007304, symSize: 0x2C }
  - { offsetInCU: 0x750F, offset: 0xFC81, size: 0x8, addend: 0x0, symName: __ZNSt3__112basic_stringIcNS_11char_traitsIcEENS_9allocatorIcEEEC2B7v160006Emc, symObjAddr: 0x1384, symBinAddr: 0x100007330, symSize: 0x54 }
  - { offsetInCU: 0x755A, offset: 0xFCCC, size: 0x8, addend: 0x0, symName: __ZNSt3__117__compressed_pairINS_12basic_stringIcNS_11char_traitsIcEENS_9allocatorIcEEE5__repES5_EC1B7v160006INS_18__default_init_tagESA_EEOT_OT0_, symObjAddr: 0x13D8, symBinAddr: 0x100007384, symSize: 0x3C }
  - { offsetInCU: 0x75B0, offset: 0xFD22, size: 0x8, addend: 0x0, symName: __ZNSt3__117__compressed_pairINS_12basic_stringIcNS_11char_traitsIcEENS_9allocatorIcEEE5__repES5_EC2B7v160006INS_18__default_init_tagESA_EEOT_OT0_, symObjAddr: 0x1424, symBinAddr: 0x1000073D0, symSize: 0x3C }
  - { offsetInCU: 0x7606, offset: 0xFD78, size: 0x8, addend: 0x0, symName: __ZNSt3__122__compressed_pair_elemINS_12basic_stringIcNS_11char_traitsIcEENS_9allocatorIcEEE5__repELi0ELb0EEC2B7v160006ENS_18__default_init_tagE, symObjAddr: 0x1460, symBinAddr: 0x10000740C, symSize: 0x14 }
  - { offsetInCU: 0x7639, offset: 0xFDAB, size: 0x8, addend: 0x0, symName: __ZNSt3__122__compressed_pair_elemINS_9allocatorIcEELi1ELb1EEC2B7v160006ENS_18__default_init_tagE, symObjAddr: 0x1474, symBinAddr: 0x100007420, symSize: 0x2C }
  - { offsetInCU: 0x766C, offset: 0xFDDE, size: 0x8, addend: 0x0, symName: __ZNSt3__19allocatorIcEC2B7v160006Ev, symObjAddr: 0x14A0, symBinAddr: 0x10000744C, symSize: 0x2C }
  - { offsetInCU: 0x7694, offset: 0xFE06, size: 0x8, addend: 0x0, symName: __ZNSt3__116__non_trivial_ifILb1ENS_9allocatorIcEEEC2B7v160006Ev, symObjAddr: 0x14CC, symBinAddr: 0x100007478, symSize: 0x14 }
  - { offsetInCU: 0x76BC, offset: 0xFE2E, size: 0x8, addend: 0x0, symName: __ZNSt3__112basic_stringIcNS_11char_traitsIcEENS_9allocatorIcEEE13__get_pointerB7v160006Ev, symObjAddr: 0x14F4, symBinAddr: 0x10000748C, symSize: 0x54 }
  - { offsetInCU: 0x76E0, offset: 0xFE52, size: 0x8, addend: 0x0, symName: __ZNKSt3__112basic_stringIcNS_11char_traitsIcEENS_9allocatorIcEEE9__is_longB7v160006Ev, symObjAddr: 0x1548, symBinAddr: 0x1000074E0, symSize: 0x38 }
  - { offsetInCU: 0x7704, offset: 0xFE76, size: 0x8, addend: 0x0, symName: __ZNSt3__112basic_stringIcNS_11char_traitsIcEENS_9allocatorIcEEE18__get_long_pointerB7v160006Ev, symObjAddr: 0x1580, symBinAddr: 0x100007518, symSize: 0x28 }
  - { offsetInCU: 0x7728, offset: 0xFE9A, size: 0x8, addend: 0x0, symName: __ZNSt3__112basic_stringIcNS_11char_traitsIcEENS_9allocatorIcEEE19__get_short_pointerB7v160006Ev, symObjAddr: 0x15A8, symBinAddr: 0x100007540, symSize: 0x28 }
  - { offsetInCU: 0x774C, offset: 0xFEBE, size: 0x8, addend: 0x0, symName: __ZNKSt3__117__compressed_pairINS_12basic_stringIcNS_11char_traitsIcEENS_9allocatorIcEEE5__repES5_E5firstB7v160006Ev, symObjAddr: 0x15D0, symBinAddr: 0x100007568, symSize: 0x24 }
  - { offsetInCU: 0x7770, offset: 0xFEE2, size: 0x8, addend: 0x0, symName: __ZNKSt3__122__compressed_pair_elemINS_12basic_stringIcNS_11char_traitsIcEENS_9allocatorIcEEE5__repELi0ELb0EE5__getB7v160006Ev, symObjAddr: 0x15F4, symBinAddr: 0x10000758C, symSize: 0x14 }
  - { offsetInCU: 0x7794, offset: 0xFF06, size: 0x8, addend: 0x0, symName: __ZNSt3__117__compressed_pairINS_12basic_stringIcNS_11char_traitsIcEENS_9allocatorIcEEE5__repES5_E5firstB7v160006Ev, symObjAddr: 0x1608, symBinAddr: 0x1000075A0, symSize: 0x24 }
  - { offsetInCU: 0x77B8, offset: 0xFF2A, size: 0x8, addend: 0x0, symName: __ZNSt3__122__compressed_pair_elemINS_12basic_stringIcNS_11char_traitsIcEENS_9allocatorIcEEE5__repELi0ELb0EE5__getB7v160006Ev, symObjAddr: 0x162C, symBinAddr: 0x1000075C4, symSize: 0x14 }
  - { offsetInCU: 0x77DD, offset: 0xFF4F, size: 0x8, addend: 0x0, symName: __ZNSt3__114pointer_traitsIPcE10pointer_toB7v160006ERc, symObjAddr: 0x1640, symBinAddr: 0x1000075D8, symSize: 0x14 }
  - { offsetInCU: 0x77FF, offset: 0xFF71, size: 0x8, addend: 0x0, symName: __ZNSt3__119ostreambuf_iteratorIcNS_11char_traitsIcEEEC2B7v160006ERNS_13basic_ostreamIcS2_EE, symObjAddr: 0x1654, symBinAddr: 0x1000075EC, symSize: 0x54 }
  - { offsetInCU: 0x7835, offset: 0xFFA7, size: 0x8, addend: 0x0, symName: __ZNKSt3__19basic_iosIcNS_11char_traitsIcEEE5rdbufB7v160006Ev, symObjAddr: 0x16A8, symBinAddr: 0x100007640, symSize: 0x24 }
  - { offsetInCU: 0x785C, offset: 0xFFCE, size: 0x8, addend: 0x0, symName: __ZNKSt3__18ios_base5rdbufB7v160006Ev, symObjAddr: 0x16CC, symBinAddr: 0x100007664, symSize: 0x18 }
  - { offsetInCU: 0x7881, offset: 0xFFF3, size: 0x8, addend: 0x0, symName: __ZNSt3__111char_traitsIcE11eq_int_typeEii, symObjAddr: 0x16E4, symBinAddr: 0x10000767C, symSize: 0x28 }
  - { offsetInCU: 0x78B2, offset: 0x10024, size: 0x8, addend: 0x0, symName: __ZNSt3__111char_traitsIcE3eofEv, symObjAddr: 0x170C, symBinAddr: 0x1000076A4, symSize: 0x8 }
  - { offsetInCU: 0x78C5, offset: 0x10037, size: 0x8, addend: 0x0, symName: __ZNKSt3__19basic_iosIcNS_11char_traitsIcEEE5widenB7v160006Ec, symObjAddr: 0x1714, symBinAddr: 0x1000076AC, symSize: 0x84 }
  - { offsetInCU: 0x7932, offset: 0x100A4, size: 0x8, addend: 0x0, symName: __ZNKSt3__15ctypeIcE5widenB7v160006Ec, symObjAddr: 0x17C4, symBinAddr: 0x10000775C, symSize: 0x38 }
  - { offsetInCU: 0x7965, offset: 0x100D7, size: 0x8, addend: 0x0, symName: __ZNSt3__18ios_base8setstateB7v160006Ej, symObjAddr: 0x17FC, symBinAddr: 0x100007794, symSize: 0x34 }
...
